; Function Attrs: nounwind uwtable
define ptr @SUNLinSol_SPTFQMR(ptr noundef %0, i32 noundef %1, i32 noundef %2, ptr noundef %3) local_unnamed_addr #0 {
  %or.cond5 = icmp ugt i32 %1, 3
  %spec.store.select6 = select i1 %or.cond5, i32 0, i32 %1
  %5 = icmp slt i32 %2, 1
  %spec.store.select = select i1 %5, i32 5, i32 %2
  %6 = tail call ptr @SUNLinSolNewEmpty(ptr noundef %3) #13
  %7 = getelementptr inbounds nuw i8, ptr %6, i64 8
  %8 = load ptr, ptr %7, align 8, !tbaa !3
  store ptr @SUNLinSolGetType_SPTFQMR, ptr %8, align 8, !tbaa !10
  %9 = getelementptr inbounds nuw i8, ptr %8, i64 8
  store ptr @SUNLinSolGetID_SPTFQMR, ptr %9, align 8, !tbaa !12
  %10 = getelementptr inbounds nuw i8, ptr %8, i64 16
  store ptr @SUNLinSolSetATimes_SPTFQMR, ptr %10, align 8, !tbaa !13
  %11 = getelementptr inbounds nuw i8, ptr %8, i64 24
  store ptr @SUNLinSolSetPreconditioner_SPTFQMR, ptr %11, align 8, !tbaa !14
  %12 = getelementptr inbounds nuw i8, ptr %8, i64 32
  store ptr @SUNLinSolSetScalingVectors_SPTFQMR, ptr %12, align 8, !tbaa !15
  %13 = getelementptr inbounds nuw i8, ptr %8, i64 40
  store ptr @SUNLinSolSetZeroGuess_SPTFQMR, ptr %13, align 8, !tbaa !16
  %14 = getelementptr inbounds nuw i8, ptr %8, i64 48
  store ptr @SUNLinSolInitialize_SPTFQMR, ptr %14, align 8, !tbaa !17
  %15 = getelementptr inbounds nuw i8, ptr %8, i64 56
  store ptr @SUNLinSolSetup_SPTFQMR, ptr %15, align 8, !tbaa !18
  %16 = getelementptr inbounds nuw i8, ptr %8, i64 64
  store ptr @SUNLinSolSolve_SPTFQMR, ptr %16, align 8, !tbaa !19
  %17 = getelementptr inbounds nuw i8, ptr %8, i64 72
  store ptr @SUNLinSolNumIters_SPTFQMR, ptr %17, align 8, !tbaa !20
  %18 = getelementptr inbounds nuw i8, ptr %8, i64 80
  store ptr @SUNLinSolResNorm_SPTFQMR, ptr %18, align 8, !tbaa !21
  %19 = getelementptr inbounds nuw i8, ptr %8, i64 104
  store ptr @SUNLinSolResid_SPTFQMR, ptr %19, align 8, !tbaa !22
  %20 = getelementptr inbounds nuw i8, ptr %8, i64 88
  store ptr @SUNLinSolLastFlag_SPTFQMR, ptr %20, align 8, !tbaa !23
  %21 = getelementptr inbounds nuw i8, ptr %8, i64 96
  store ptr @SUNLinSolSpace_SPTFQMR, ptr %21, align 8, !tbaa !24
  %22 = getelementptr inbounds nuw i8, ptr %8, i64 112
  store ptr @SUNLinSolFree_SPTFQMR, ptr %22, align 8, !tbaa !25
  %23 = tail call noalias dereferenceable_or_null(168) ptr @malloc(i64 noundef 168) #14
  store ptr %23, ptr %6, align 8, !tbaa !26
  %24 = getelementptr inbounds nuw i8, ptr %23, i64 24
  store i32 0, ptr %24, align 8, !tbaa !27
  store i32 %spec.store.select, ptr %23, align 8, !tbaa !33
  %25 = getelementptr inbounds nuw i8, ptr %23, i64 4
  store i32 %spec.store.select6, ptr %25, align 4, !tbaa !34
  %26 = getelementptr inbounds nuw i8, ptr %23, i64 8
  %27 = getelementptr inbounds nuw i8, ptr %23, i64 88
  %28 = getelementptr inbounds nuw i8, ptr %23, i64 96
  %29 = getelementptr inbounds nuw i8, ptr %23, i64 104
  %30 = getelementptr inbounds nuw i8, ptr %23, i64 112
  %31 = getelementptr inbounds nuw i8, ptr %23, i64 120
  %32 = getelementptr inbounds nuw i8, ptr %23, i64 128
  %33 = getelementptr inbounds nuw i8, ptr %23, i64 136
  %34 = getelementptr inbounds nuw i8, ptr %23, i64 144
  %35 = getelementptr inbounds nuw i8, ptr %23, i64 152
  %36 = getelementptr inbounds nuw i8, ptr %23, i64 160
  %37 = getelementptr inbounds nuw i8, ptr %23, i64 32
  tail call void @llvm.memset.p0.i64(ptr noundef nonnull align 8 dereferenceable(16) %26, i8 0, i64 16, i1 false)
  tail call void @llvm.memset.p0.i64(ptr noundef nonnull align 8 dereferenceable(136) %37, i8 0, i64 136, i1 false)
  %38 = tail call ptr @N_VClone(ptr noundef %0) #13
  store ptr %38, ptr %27, align 8, !tbaa !35
  %39 = tail call ptr @N_VClone(ptr noundef %0) #13
  store ptr %39, ptr %28, align 8, !tbaa !36
  %40 = tail call ptr @N_VClone(ptr noundef %0) #13
  store ptr %40, ptr %29, align 8, !tbaa !37
  %41 = tail call ptr @N_VClone(ptr noundef %0) #13
  store ptr %41, ptr %30, align 8, !tbaa !38
  %42 = tail call ptr @N_VClone(ptr noundef %0) #13
  store ptr %42, ptr %31, align 8, !tbaa !39
  %43 = tail call ptr @N_VCloneVectorArray(i32 noundef 2, ptr noundef %0) #13
  store ptr %43, ptr %32, align 8, !tbaa !40
  %44 = tail call ptr @N_VClone(ptr noundef %0) #13
  store ptr %44, ptr %33, align 8, !tbaa !41
  %45 = tail call ptr @N_VClone(ptr noundef %0) #13
  store ptr %45, ptr %34, align 8, !tbaa !42
  %46 = tail call ptr @N_VClone(ptr noundef %0) #13
  store ptr %46, ptr %35, align 8, !tbaa !43
  %47 = tail call ptr @N_VClone(ptr noundef %0) #13
  store ptr %47, ptr %36, align 8, !tbaa !44
  ret ptr %6
}